(dp0
S'l_ear'
p1
(lp2
(F1.5707963267948966
F1.1780972450961724
I1
tp3
a(F3.1415926535897931
F0.0
F0.0
tp4
asS'l_jaw'
p5
(lp6
(F2.0027653166634929
F0.78539816339744828
I1
tp7
a(F3.1415926535897931
F0.0
F0.0
tp8
asS'r_jaw'
p9
(lp10
(F2.0027653166634929
F-0.78539816339744828
I1
tp11
a(I0
I0
I0
tp12
asS'r_ear'
p13
(lp14
(F1.5707963267948966
F-1.1780972450961724
I1
tp15
a(I0
I0
I0
tp16
asS'l_mouth'
p17
(lp18
(F1.7671458676442586
F0.35342917352885173
I1
tp19
a(F3.1415926535897931
F0.0
F0.0
tp20
asS'r_mouth'
p21
(lp22
(F1.7671458676442586
F-0.35342917352885173
I1
tp23
a(I0
I0
I0
tp24
asS'r_neck'
p25
(lp26
(F2.0027653166634929
F-1.1780972450961724
I1
tp27
a(I0
I0
I0
tp28
asS'l_neck'
p29
(lp30
(F2.0027653166634929
F1.1780972450961724
I1
tp31
a(F3.1415926535897931
F0.0
F0.0
tp32
asS'r_cheek'
p33
(lp34
(F1.7671458676442586
F-0.78539816339744828
I1
tp35
a(I0
I0
I0
tp36
asS'chin'
p37
(lp38
(F2.1205750411731104
F0.0
I1
tp39
a(F0.0
F0.39269908169872414
I0
tp40
asS'nose'
p41
(lp42
(F1.5707963267948966
F0.0
I1
tp43
a(I0
I0
I0
tp44
asS'l_upper_cheek'
p45
(lp46
(F1.5707963267948966
F0.58904862254808621
I1
tp47
a(F3.1415926535897931
F0.0
F0.0
tp48
asS'l_cheek'
p49
(lp50
(F1.7671458676442586
F0.78539816339744828
I1
tp51
a(F3.1415926535897931
F0.39269907999999998
F0.0
tp52
asS'r_upper_cheek'
p53
(lp54
(F1.5707963267948966
F-0.58904862254808621
I1
tp55
a(I0
I0
I0
tp56
as.