(dp1
S'upper_cheek'
p2
(lp3
(F1.5707963267948966
F-0.58904862254808621
I1
tp4
a(I0
I0
I0
tp5
asS'middle_cheek'
p6
(lp7
(F1.7671458676442586
F-0.78539816339744828
I1
tp8
a(I0
I0
I0
tp9
asS'jaw_bone'
p10
(lp11
(F2.0027653166634929
F-0.78539816339744828
I1
tp12
a(I0
I0
I0
tp13
asS'chin'
p14
(lp15
(F2.1205750411731104
F0
I1
tp16
a(F0
F0.39269908169872414
I0
tp17
asS'nose'
p18
(lp19
(F1.5707963267948966
F0
I1
tp20
a(I0
I0
I0
tp21
asS'mouth_corner'
p22
(lp23
(F1.7671458676442586
F-0.35342917352885173
I1
tp24
a(I0
I0
I0
tp25
asS'back_neck'
p26
(lp27
(F2.0027653166634929
F-1.1780972450961724
I1
tp28
a(I0
I0
I0
tp29
asS'near_ear'
p30
(lp31
(F1.5707963267948966
F-1.1780972450961724
I1
tp32
a(I0
I0
I0
tp33
as.